; Function Attrs: mustprogress nounwind uwtable
define dso_local void @_ZN4llvm5SUnit18setHeightToAtLeastEj(ptr noundef nonnull align 8 dereferenceable(255) %0, i32 noundef %1) local_unnamed_addr #1 align 2 {
  %3 = getelementptr inbounds nuw i8, ptr %0, i64 254
  %4 = load i8, ptr %3, align 2
  %5 = and i8 %4, 2
  %.not.i = icmp eq i8 %5, 0
  br i1 %.not.i, label %6, label %_ZNK4llvm5SUnit9getHeightEv.exit

6:                                                ; preds = %2
  tail call void @_ZN4llvm5SUnit13ComputeHeightEv(ptr noundef nonnull align 8 dereferenceable(255) %0)
  br label %_ZNK4llvm5SUnit9getHeightEv.exit

_ZNK4llvm5SUnit9getHeightEv.exit:                 ; preds = %2, %6
  %7 = getelementptr inbounds nuw i8, ptr %0, i64 244
  %8 = load i32, ptr %7, align 4
  %.not = icmp ugt i32 %1, %8
  br i1 %.not, label %9, label %12

9:                                                ; preds = %_ZNK4llvm5SUnit9getHeightEv.exit
  tail call void @_ZN4llvm5SUnit14setHeightDirtyEv(ptr noundef nonnull align 8 dereferenceable(255) %0)
  store i32 %1, ptr %7, align 4
  %10 = load i8, ptr %3, align 2
  %11 = or i8 %10, 2
  store i8 %11, ptr %3, align 2
  br label %12

12:                                               ; preds = %_ZNK4llvm5SUnit9getHeightEv.exit, %9
  ret void
}